target datalayout = "e-m:e-p270:32:32-p271:32:32-p272:64:64-i64:64-i128:128-f80:128-n8:16:32:64-S128"
target triple = "x86_64-pc-linux-gnu"

%struct.luaL_Reg = type { ptr, ptr }

@.str.13 = private unnamed_addr constant [8 x i8] c"_LOADED\00", align 1
@.str.14 = private unnamed_addr constant [30 x i8] c"name conflict for module '%s'\00", align 1

; Function Attrs: nounwind uwtable
define internal i32 @libsize(ptr noundef %0) #0 {
  %2 = alloca ptr, align 8
  %3 = alloca i32, align 4
  store ptr %0, ptr %2, align 8, !tbaa !28
  call void @llvm.lifetime.start.p0(i64 4, ptr %3) #9
  store i32 0, ptr %3, align 4, !tbaa !9
  br label %4

4:                                                ; preds = %12, %1
  %5 = load ptr, ptr %2, align 8, !tbaa !28
  %6 = getelementptr inbounds nuw %struct.luaL_Reg, ptr %5, i32 0, i32 0
  %7 = load ptr, ptr %6, align 8, !tbaa !30
  %8 = icmp ne ptr %7, null
  br i1 %8, label %9, label %15

9:                                                ; preds = %4
  %10 = load i32, ptr %3, align 4, !tbaa !9
  %11 = add nsw i32 %10, 1
  store i32 %11, ptr %3, align 4, !tbaa !9
  br label %12

12:                                               ; preds = %9
  %13 = load ptr, ptr %2, align 8, !tbaa !28
  %14 = getelementptr inbounds nuw %struct.luaL_Reg, ptr %13, i32 1
  store ptr %14, ptr %2, align 8, !tbaa !28
  br label %4, !llvm.loop !35

15:                                               ; preds = %4
  %16 = load i32, ptr %3, align 4, !tbaa !9
  call void @llvm.lifetime.end.p0(i64 4, ptr %3) #9
  ret i32 %16
}

; Function Attrs: nounwind uwtable
define dso_local void @luaL_openlib(ptr noundef %0, ptr noundef %1, ptr noundef %2, i32 noundef %3) #0 {
  %5 = alloca ptr, align 8
  %6 = alloca ptr, align 8
  %7 = alloca ptr, align 8
  %8 = alloca i32, align 4
  %9 = alloca i32, align 4
  %10 = alloca i32, align 4
  store ptr %0, ptr %5, align 8, !tbaa !4
  store ptr %1, ptr %6, align 8, !tbaa !11
  store ptr %2, ptr %7, align 8, !tbaa !28
  store i32 %3, ptr %8, align 4, !tbaa !9
  %11 = load ptr, ptr %6, align 8, !tbaa !11
  %12 = icmp ne ptr %11, null
  br i1 %12, label %13, label %44

13:                                               ; preds = %4
  call void @llvm.lifetime.start.p0(i64 4, ptr %9) #9
  %14 = load ptr, ptr %7, align 8, !tbaa !28
  %15 = call i32 @libsize(ptr noundef %14)
  store i32 %15, ptr %9, align 4, !tbaa !9
  %16 = load ptr, ptr %5, align 8, !tbaa !4
  %17 = call ptr @luaL_findtable(ptr noundef %16, i32 noundef -10000, ptr noundef @.str.13, i32 noundef 1)
  %18 = load ptr, ptr %5, align 8, !tbaa !4
  %19 = load ptr, ptr %6, align 8, !tbaa !11
  call void @lua_getfield(ptr noundef %18, i32 noundef -1, ptr noundef %19)
  %20 = load ptr, ptr %5, align 8, !tbaa !4
  %21 = call i32 @lua_type(ptr noundef %20, i32 noundef -1)
  %22 = icmp eq i32 %21, 5
  br i1 %22, label %38, label %23

23:                                               ; preds = %13
  %24 = load ptr, ptr %5, align 8, !tbaa !4
  call void @lua_settop(ptr noundef %24, i32 noundef -2)
  %25 = load ptr, ptr %5, align 8, !tbaa !4
  %26 = load ptr, ptr %6, align 8, !tbaa !11
  %27 = load i32, ptr %9, align 4, !tbaa !9
  %28 = call ptr @luaL_findtable(ptr noundef %25, i32 noundef -10002, ptr noundef %26, i32 noundef %27)
  %29 = icmp ne ptr %28, null
  br i1 %29, label %30, label %34

30:                                               ; preds = %23
  %31 = load ptr, ptr %5, align 8, !tbaa !4
  %32 = load ptr, ptr %6, align 8, !tbaa !11
  %33 = call i32 (ptr, ptr, ...) @luaL_error(ptr noundef %31, ptr noundef @.str.14, ptr noundef %32)
  br label %34

34:                                               ; preds = %30, %23
  %35 = load ptr, ptr %5, align 8, !tbaa !4
  call void @lua_pushvalue(ptr noundef %35, i32 noundef -1)
  %36 = load ptr, ptr %5, align 8, !tbaa !4
  %37 = load ptr, ptr %6, align 8, !tbaa !11
  call void @lua_setfield(ptr noundef %36, i32 noundef -3, ptr noundef %37)
  br label %38

38:                                               ; preds = %34, %13
  %39 = load ptr, ptr %5, align 8, !tbaa !4
  call void @lua_remove(ptr noundef %39, i32 noundef -2)
  %40 = load ptr, ptr %5, align 8, !tbaa !4
  %41 = load i32, ptr %8, align 4, !tbaa !9
  %42 = add nsw i32 %41, 1
  %43 = sub nsw i32 0, %42
  call void @lua_insert(ptr noundef %40, i32 noundef %43)
  call void @llvm.lifetime.end.p0(i64 4, ptr %9) #9
  br label %44

44:                                               ; preds = %38, %4
  br label %45

45:                                               ; preds = %75, %44
  %46 = load ptr, ptr %7, align 8, !tbaa !28
  %47 = getelementptr inbounds nuw %struct.luaL_Reg, ptr %46, i32 0, i32 0
  %48 = load ptr, ptr %47, align 8, !tbaa !30
  %49 = icmp ne ptr %48, null
  br i1 %49, label %50, label %78

50:                                               ; preds = %45
  call void @llvm.lifetime.start.p0(i64 4, ptr %10) #9
  store i32 0, ptr %10, align 4, !tbaa !9
  br label %51

51:                                               ; preds = %59, %50
  %52 = load i32, ptr %10, align 4, !tbaa !9
  %53 = load i32, ptr %8, align 4, !tbaa !9
  %54 = icmp slt i32 %52, %53
  br i1 %54, label %55, label %62

55:                                               ; preds = %51
  %56 = load ptr, ptr %5, align 8, !tbaa !4
  %57 = load i32, ptr %8, align 4, !tbaa !9
  %58 = sub nsw i32 0, %57
  call void @lua_pushvalue(ptr noundef %56, i32 noundef %58)
  br label %59

59:                                               ; preds = %55
  %60 = load i32, ptr %10, align 4, !tbaa !9
  %61 = add nsw i32 %60, 1
  store i32 %61, ptr %10, align 4, !tbaa !9
  br label %51, !llvm.loop !32

62:                                               ; preds = %51
  %63 = load ptr, ptr %5, align 8, !tbaa !4
  %64 = load ptr, ptr %7, align 8, !tbaa !28
  %65 = getelementptr inbounds nuw %struct.luaL_Reg, ptr %64, i32 0, i32 1
  %66 = load ptr, ptr %65, align 8, !tbaa !33
  %67 = load i32, ptr %8, align 4, !tbaa !9
  call void @lua_pushcclosure(ptr noundef %63, ptr noundef %66, i32 noundef %67)
  %68 = load ptr, ptr %5, align 8, !tbaa !4
  %69 = load i32, ptr %8, align 4, !tbaa !9
  %70 = add nsw i32 %69, 2
  %71 = sub nsw i32 0, %70
  %72 = load ptr, ptr %7, align 8, !tbaa !28
  %73 = getelementptr inbounds nuw %struct.luaL_Reg, ptr %72, i32 0, i32 0
  %74 = load ptr, ptr %73, align 8, !tbaa !30
  call void @lua_setfield(ptr noundef %68, i32 noundef %71, ptr noundef %74)
  call void @llvm.lifetime.end.p0(i64 4, ptr %10) #9
  br label %75

75:                                               ; preds = %62
  %76 = load ptr, ptr %7, align 8, !tbaa !28
  %77 = getelementptr inbounds nuw %struct.luaL_Reg, ptr %76, i32 1
  store ptr %77, ptr %7, align 8, !tbaa !28
  br label %45, !llvm.loop !34

78:                                               ; preds = %45
  %79 = load ptr, ptr %5, align 8, !tbaa !4
  %80 = load i32, ptr %8, align 4, !tbaa !9
  %81 = sub nsw i32 0, %80
  %82 = sub nsw i32 %81, 1
  call void @lua_settop(ptr noundef %79, i32 noundef %82)
  ret void
}