; Function Attrs: nounwind uwtable
define dso_local void @luaL_openlib(ptr noundef %0, ptr noundef %1, ptr noundef readonly captures(none) %2, i32 noundef %3) local_unnamed_addr #0 {
  %.not = icmp eq ptr %1, null
  br i1 %.not, label %20, label %5

5:                                                ; preds = %4
  %6 = load ptr, ptr %2, align 8, !tbaa !18
  %.not4.i = icmp eq ptr %6, null
  br i1 %.not4.i, label %libsize.exit, label %.lr.ph.i

.lr.ph.i:                                         ; preds = %5, %.lr.ph.i
  %.06.i = phi i32 [ %7, %.lr.ph.i ], [ 0, %5 ]
  %.035.i = phi ptr [ %8, %.lr.ph.i ], [ %2, %5 ]
  %7 = add nuw nsw i32 %.06.i, 1
  %8 = getelementptr inbounds nuw i8, ptr %.035.i, i64 16
  %9 = load ptr, ptr %8, align 8, !tbaa !18
  %.not.i = icmp eq ptr %9, null
  br i1 %.not.i, label %libsize.exit, label %.lr.ph.i, !llvm.loop !20

libsize.exit:                                     ; preds = %.lr.ph.i, %5
  %.0.lcssa.i = phi i32 [ 0, %5 ], [ %7, %.lr.ph.i ]
  %10 = tail call ptr @luaL_findtable(ptr noundef %0, i32 noundef -10000, ptr noundef nonnull @.str.13, i32 noundef 1)
  tail call void @lua_getfield(ptr noundef %0, i32 noundef -1, ptr noundef nonnull %1) #17
  %11 = tail call i32 @lua_type(ptr noundef %0, i32 noundef -1) #17
  %12 = icmp eq i32 %11, 5
  br i1 %12, label %18, label %13

13:                                               ; preds = %libsize.exit
  tail call void @lua_settop(ptr noundef %0, i32 noundef -2) #17
  %14 = tail call ptr @luaL_findtable(ptr noundef %0, i32 noundef -10002, ptr noundef nonnull %1, i32 noundef %.0.lcssa.i)
  %.not35 = icmp eq ptr %14, null
  br i1 %.not35, label %17, label %15

15:                                               ; preds = %13
  %16 = tail call i32 (ptr, ptr, ...) @luaL_error(ptr noundef %0, ptr noundef nonnull @.str.14, ptr noundef nonnull %1)
  br label %17

17:                                               ; preds = %15, %13
  tail call void @lua_pushvalue(ptr noundef %0, i32 noundef -1) #17
  tail call void @lua_setfield(ptr noundef %0, i32 noundef -3, ptr noundef nonnull %1) #17
  br label %18

18:                                               ; preds = %17, %libsize.exit
  tail call void @lua_remove(ptr noundef %0, i32 noundef -2) #17
  %19 = xor i32 %3, -1
  tail call void @lua_insert(ptr noundef %0, i32 noundef %19) #17
  br label %20

20:                                               ; preds = %18, %4
  %21 = load ptr, ptr %2, align 8, !tbaa !18
  %.not3638 = icmp eq ptr %21, null
  br i1 %.not3638, label %._crit_edge40, label %.preheader.lr.ph

.preheader.lr.ph:                                 ; preds = %20
  %22 = icmp sgt i32 %3, 0
  %23 = sub nsw i32 0, %3
  %24 = sub nsw i32 -2, %3
  br i1 %22, label %.preheader.us, label %.preheader

.preheader.us:                                    ; preds = %.preheader.lr.ph, %._crit_edge.us
  %.03239.us = phi ptr [ %30, %._crit_edge.us ], [ %2, %.preheader.lr.ph ]
  br label %25

25:                                               ; preds = %.preheader.us, %25
  %.037.us = phi i32 [ 0, %.preheader.us ], [ %26, %25 ]
  tail call void @lua_pushvalue(ptr noundef %0, i32 noundef %23) #17
  %26 = add nuw nsw i32 %.037.us, 1
  %exitcond.not = icmp eq i32 %26, %3
  br i1 %exitcond.not, label %._crit_edge.us, label %25, !llvm.loop !21

._crit_edge.us:                                   ; preds = %25
  %27 = getelementptr inbounds nuw i8, ptr %.03239.us, i64 8
  %28 = load ptr, ptr %27, align 8, !tbaa !22
  tail call void @lua_pushcclosure(ptr noundef %0, ptr noundef %28, i32 noundef %3) #17
  %29 = load ptr, ptr %.03239.us, align 8, !tbaa !18
  tail call void @lua_setfield(ptr noundef %0, i32 noundef %24, ptr noundef %29) #17
  %30 = getelementptr inbounds nuw i8, ptr %.03239.us, i64 16
  %31 = load ptr, ptr %30, align 8, !tbaa !18
  %.not36.us = icmp eq ptr %31, null
  br i1 %.not36.us, label %._crit_edge40, label %.preheader.us, !llvm.loop !23

.preheader:                                       ; preds = %.preheader.lr.ph, %.preheader
  %.03239 = phi ptr [ %35, %.preheader ], [ %2, %.preheader.lr.ph ]
  %32 = getelementptr inbounds nuw i8, ptr %.03239, i64 8
  %33 = load ptr, ptr %32, align 8, !tbaa !22
  tail call void @lua_pushcclosure(ptr noundef %0, ptr noundef %33, i32 noundef %3) #17
  %34 = load ptr, ptr %.03239, align 8, !tbaa !18
  tail call void @lua_setfield(ptr noundef %0, i32 noundef %24, ptr noundef %34) #17
  %35 = getelementptr inbounds nuw i8, ptr %.03239, i64 16
  %36 = load ptr, ptr %35, align 8, !tbaa !18
  %.not36 = icmp eq ptr %36, null
  br i1 %.not36, label %._crit_edge40, label %.preheader, !llvm.loop !23

._crit_edge40:                                    ; preds = %.preheader, %._crit_edge.us, %20
  %37 = xor i32 %3, -1
  tail call void @lua_settop(ptr noundef %0, i32 noundef %37) #17
  ret void
}